; Function Attrs: mustprogress nounwind uwtable
define internal void @_ZN4llvm11SmallVectorIN12_GLOBAL__N_113ValistChecker14VAListAccepterELj15EED2Ev(ptr noundef nonnull align 8 dereferenceable(1096) %0) unnamed_addr #1 align 2 {
  %.val = load ptr, ptr %0, align 8
  %2 = tail call noundef i64 @_ZNK4llvm15SmallVectorBaseIjE4sizeEv(ptr noundef nonnull align 8 dereferenceable(16) %0) #19
  %.not4.i = icmp eq i64 %2, 0
  br i1 %.not4.i, label %_ZN4llvm23SmallVectorTemplateBaseIN12_GLOBAL__N_113ValistChecker14VAListAccepterELb0EE13destroy_rangeEPS3_S5_.exit, label %.lr.ph.i.preheader

.lr.ph.i.preheader:                               ; preds = %1
  %3 = getelementptr inbounds %"struct.(anonymous namespace)::ValistChecker::VAListAccepter", ptr %.val, i64 %2
  br label %.lr.ph.i

.lr.ph.i:                                         ; preds = %.lr.ph.i.preheader, %_ZN12_GLOBAL__N_113ValistChecker14VAListAccepterD2Ev.exit.i
  %.05.i = phi ptr [ %4, %_ZN12_GLOBAL__N_113ValistChecker14VAListAccepterD2Ev.exit.i ], [ %3, %.lr.ph.i.preheader ]
  %4 = getelementptr inbounds i8, ptr %.05.i, i64 -72
  %5 = getelementptr inbounds i8, ptr %.05.i, i64 -56
  %6 = load ptr, ptr %5, align 8
  %7 = getelementptr inbounds i8, ptr %.05.i, i64 -48
  %8 = load ptr, ptr %7, align 8
  %.not4.i.i.i.i.i.i.i = icmp eq ptr %6, %8
  br i1 %.not4.i.i.i.i.i.i.i, label %_ZSt8_DestroyIPNSt7__cxx1112basic_stringIcSt11char_traitsIcESaIcEEES5_EvT_S7_RSaIT0_E.exit.i.i.i.i, label %.lr.ph.i.i.i.i.i.i.i

.lr.ph.i.i.i.i.i.i.i:                             ; preds = %.lr.ph.i, %.lr.ph.i.i.i.i.i.i.i
  %.05.i.i.i.i.i.i.i = phi ptr [ %9, %.lr.ph.i.i.i.i.i.i.i ], [ %6, %.lr.ph.i ]
  tail call void @_ZNSt7__cxx1112basic_stringIcSt11char_traitsIcESaIcEED1Ev(ptr noundef nonnull align 8 dereferenceable(32) %.05.i.i.i.i.i.i.i) #19
  %9 = getelementptr inbounds nuw i8, ptr %.05.i.i.i.i.i.i.i, i64 32
  %.not.i.i.i.i.i.i.i = icmp eq ptr %9, %8
  br i1 %.not.i.i.i.i.i.i.i, label %_ZSt8_DestroyIPNSt7__cxx1112basic_stringIcSt11char_traitsIcESaIcEEES5_EvT_S7_RSaIT0_E.exitthread-pre-split.i.i.i.i, label %.lr.ph.i.i.i.i.i.i.i, !llvm.loop !4

_ZSt8_DestroyIPNSt7__cxx1112basic_stringIcSt11char_traitsIcESaIcEEES5_EvT_S7_RSaIT0_E.exitthread-pre-split.i.i.i.i: ; preds = %.lr.ph.i.i.i.i.i.i.i
  %.pr.i.i.i.i = load ptr, ptr %5, align 8
  br label %_ZSt8_DestroyIPNSt7__cxx1112basic_stringIcSt11char_traitsIcESaIcEEES5_EvT_S7_RSaIT0_E.exit.i.i.i.i

_ZSt8_DestroyIPNSt7__cxx1112basic_stringIcSt11char_traitsIcESaIcEEES5_EvT_S7_RSaIT0_E.exit.i.i.i.i: ; preds = %_ZSt8_DestroyIPNSt7__cxx1112basic_stringIcSt11char_traitsIcESaIcEEES5_EvT_S7_RSaIT0_E.exitthread-pre-split.i.i.i.i, %.lr.ph.i
  %10 = phi ptr [ %.pr.i.i.i.i, %_ZSt8_DestroyIPNSt7__cxx1112basic_stringIcSt11char_traitsIcESaIcEEES5_EvT_S7_RSaIT0_E.exitthread-pre-split.i.i.i.i ], [ %6, %.lr.ph.i ]
  %.not.i.i.i.i.i.i = icmp eq ptr %10, null
  br i1 %.not.i.i.i.i.i.i, label %_ZN12_GLOBAL__N_113ValistChecker14VAListAccepterD2Ev.exit.i, label %11

11:                                               ; preds = %_ZSt8_DestroyIPNSt7__cxx1112basic_stringIcSt11char_traitsIcESaIcEEES5_EvT_S7_RSaIT0_E.exit.i.i.i.i
  %12 = getelementptr inbounds i8, ptr %.05.i, i64 -40
  %13 = load ptr, ptr %12, align 8
  %14 = ptrtoint ptr %13 to i64
  %15 = ptrtoint ptr %10 to i64
  %16 = sub i64 %14, %15
  tail call void @_ZdlPvm(ptr noundef nonnull %10, i64 noundef %16) #20
  br label %_ZN12_GLOBAL__N_113ValistChecker14VAListAccepterD2Ev.exit.i

_ZN12_GLOBAL__N_113ValistChecker14VAListAccepterD2Ev.exit.i: ; preds = %11, %_ZSt8_DestroyIPNSt7__cxx1112basic_stringIcSt11char_traitsIcESaIcEEES5_EvT_S7_RSaIT0_E.exit.i.i.i.i
  %.not.i = icmp eq ptr %.val, %4
  br i1 %.not.i, label %_ZN4llvm23SmallVectorTemplateBaseIN12_GLOBAL__N_113ValistChecker14VAListAccepterELb0EE13destroy_rangeEPS3_S5_.exit, label %.lr.ph.i, !llvm.loop !6

_ZN4llvm23SmallVectorTemplateBaseIN12_GLOBAL__N_113ValistChecker14VAListAccepterELb0EE13destroy_rangeEPS3_S5_.exit: ; preds = %_ZN12_GLOBAL__N_113ValistChecker14VAListAccepterD2Ev.exit.i, %1
  %17 = load ptr, ptr %0, align 8
  %18 = getelementptr inbounds nuw i8, ptr %0, i64 16
  %19 = icmp eq ptr %17, %18
  br i1 %19, label %_ZN4llvm15SmallVectorImplIN12_GLOBAL__N_113ValistChecker14VAListAccepterEED2Ev.exit, label %20

20:                                               ; preds = %_ZN4llvm23SmallVectorTemplateBaseIN12_GLOBAL__N_113ValistChecker14VAListAccepterELb0EE13destroy_rangeEPS3_S5_.exit
  tail call void @free(ptr noundef %17) #19
  br label %_ZN4llvm15SmallVectorImplIN12_GLOBAL__N_113ValistChecker14VAListAccepterEED2Ev.exit

_ZN4llvm15SmallVectorImplIN12_GLOBAL__N_113ValistChecker14VAListAccepterEED2Ev.exit: ; preds = %_ZN4llvm23SmallVectorTemplateBaseIN12_GLOBAL__N_113ValistChecker14VAListAccepterELb0EE13destroy_rangeEPS3_S5_.exit, %20
  ret void
}